; Function Attrs: nofree nounwind uwtable
define void @Bac_PtrDumpModuleVerilog(ptr noundef captures(none) %0, ptr noundef readonly captures(none) %1) local_unnamed_addr #3 {
  %3 = getelementptr i8, ptr %1, i64 8
  %.val22 = load ptr, ptr %3, align 8
  %4 = load ptr, ptr %.val22, align 8
  %5 = tail call i32 (ptr, ptr, ...) @fprintf(ptr noundef %0, ptr noundef nonnull @.str.19, ptr noundef %4) #14
  %.val21 = load ptr, ptr %3, align 8
  %6 = getelementptr inbounds nuw i8, ptr %.val21, i64 8
  %7 = load ptr, ptr %6, align 8
  %8 = getelementptr i8, ptr %7, i64 4
  %.val1011.i = load i32, ptr %8, align 4
  %9 = icmp sgt i32 %.val1011.i, 0
  br i1 %9, label %.lr.ph.i, label %Bac_PtrDumpSignalsVerilog.exit

.lr.ph.i:                                         ; preds = %2
  %10 = getelementptr i8, ptr %7, i64 8
  br label %.lr.ph.split.i

.lr.ph.split.i:                                   ; preds = %.lr.ph.split.i, %.lr.ph.i
  %indvars.iv.i = phi i64 [ %indvars.iv.next.i, %.lr.ph.split.i ], [ 0, %.lr.ph.i ]
  %.val.i = load ptr, ptr %10, align 8
  %11 = getelementptr inbounds nuw ptr, ptr %.val.i, i64 %indvars.iv.i
  %12 = load ptr, ptr %11, align 8
  %13 = tail call i32 (ptr, ptr, ...) @fprintf(ptr noundef %0, ptr noundef nonnull @.str.11, ptr noundef %12, ptr noundef nonnull @.str.12) #14
  %indvars.iv.next.i = add nuw nsw i64 %indvars.iv.i, 1
  %.val10.i = load i32, ptr %8, align 4
  %14 = sext i32 %.val10.i to i64
  %15 = icmp slt i64 %indvars.iv.next.i, %14
  br i1 %15, label %.lr.ph.split.i, label %Bac_PtrDumpSignalsVerilog.exit.loopexit, !llvm.loop !13

Bac_PtrDumpSignalsVerilog.exit.loopexit:          ; preds = %.lr.ph.split.i
  %.val20.pre = load ptr, ptr %3, align 8
  br label %Bac_PtrDumpSignalsVerilog.exit

Bac_PtrDumpSignalsVerilog.exit:                   ; preds = %Bac_PtrDumpSignalsVerilog.exit.loopexit, %2
  %.val20 = phi ptr [ %.val20.pre, %Bac_PtrDumpSignalsVerilog.exit.loopexit ], [ %.val21, %2 ]
  %16 = getelementptr inbounds nuw i8, ptr %.val20, i64 16
  %17 = load ptr, ptr %16, align 8
  %18 = getelementptr i8, ptr %17, i64 4
  %.val1011.i23 = load i32, ptr %18, align 4
  %19 = icmp sgt i32 %.val1011.i23, 0
  br i1 %19, label %.lr.ph.i24, label %Bac_PtrDumpSignalsVerilog.exit25

.lr.ph.i24:                                       ; preds = %Bac_PtrDumpSignalsVerilog.exit
  %20 = getelementptr i8, ptr %17, i64 8
  br label %.lr.ph.split.us.i

.lr.ph.split.us.i:                                ; preds = %.lr.ph.split.us.i, %.lr.ph.i24
  %indvars.iv16.i = phi i64 [ %indvars.iv.next17.i, %.lr.ph.split.us.i ], [ 0, %.lr.ph.i24 ]
  %.val1013.us.i = phi i32 [ %.val10.us.i, %.lr.ph.split.us.i ], [ %.val1011.i23, %.lr.ph.i24 ]
  %.val.us.i = load ptr, ptr %20, align 8
  %21 = getelementptr inbounds nuw ptr, ptr %.val.us.i, i64 %indvars.iv16.i
  %22 = load ptr, ptr %21, align 8
  %23 = add nsw i32 %.val1013.us.i, -1
  %24 = sext i32 %23 to i64
  %25 = icmp slt i64 %indvars.iv16.i, %24
  %26 = select i1 %25, ptr @.str.12, ptr @.str.13
  %27 = tail call i32 (ptr, ptr, ...) @fprintf(ptr noundef %0, ptr noundef nonnull @.str.11, ptr noundef %22, ptr noundef nonnull %26) #14
  %indvars.iv.next17.i = add nuw nsw i64 %indvars.iv16.i, 1
  %.val10.us.i = load i32, ptr %18, align 4
  %28 = sext i32 %.val10.us.i to i64
  %29 = icmp slt i64 %indvars.iv.next17.i, %28
  br i1 %29, label %.lr.ph.split.us.i, label %Bac_PtrDumpSignalsVerilog.exit25, !llvm.loop !13

Bac_PtrDumpSignalsVerilog.exit25:                 ; preds = %.lr.ph.split.us.i, %Bac_PtrDumpSignalsVerilog.exit
  %30 = tail call i64 @fwrite(ptr nonnull @.str.20, i64 6, i64 1, ptr %0)
  %31 = tail call i64 @fwrite(ptr nonnull @.str.21, i64 7, i64 1, ptr %0)
  %.val19 = load ptr, ptr %3, align 8
  %32 = getelementptr inbounds nuw i8, ptr %.val19, i64 8
  %33 = load ptr, ptr %32, align 8
  %34 = getelementptr i8, ptr %33, i64 4
  %.val1011.i26 = load i32, ptr %34, align 4
  %35 = icmp sgt i32 %.val1011.i26, 0
  br i1 %35, label %.lr.ph.i27, label %Bac_PtrDumpSignalsVerilog.exit34

.lr.ph.i27:                                       ; preds = %Bac_PtrDumpSignalsVerilog.exit25
  %36 = getelementptr i8, ptr %33, i64 8
  br label %.lr.ph.split.us.i28

.lr.ph.split.us.i28:                              ; preds = %.lr.ph.split.us.i28, %.lr.ph.i27
  %indvars.iv16.i29 = phi i64 [ %indvars.iv.next17.i32, %.lr.ph.split.us.i28 ], [ 0, %.lr.ph.i27 ]
  %.val1013.us.i30 = phi i32 [ %.val10.us.i33, %.lr.ph.split.us.i28 ], [ %.val1011.i26, %.lr.ph.i27 ]
  %.val.us.i31 = load ptr, ptr %36, align 8
  %37 = getelementptr inbounds nuw ptr, ptr %.val.us.i31, i64 %indvars.iv16.i29
  %38 = load ptr, ptr %37, align 8
  %39 = add nsw i32 %.val1013.us.i30, -1
  %40 = sext i32 %39 to i64
  %41 = icmp slt i64 %indvars.iv16.i29, %40
  %42 = select i1 %41, ptr @.str.12, ptr @.str.13
  %43 = tail call i32 (ptr, ptr, ...) @fprintf(ptr noundef %0, ptr noundef nonnull @.str.11, ptr noundef %38, ptr noundef nonnull %42) #14
  %indvars.iv.next17.i32 = add nuw nsw i64 %indvars.iv16.i29, 1
  %.val10.us.i33 = load i32, ptr %34, align 4
  %44 = sext i32 %.val10.us.i33 to i64
  %45 = icmp slt i64 %indvars.iv.next17.i32, %44
  br i1 %45, label %.lr.ph.split.us.i28, label %Bac_PtrDumpSignalsVerilog.exit34, !llvm.loop !13

Bac_PtrDumpSignalsVerilog.exit34:                 ; preds = %.lr.ph.split.us.i28, %Bac_PtrDumpSignalsVerilog.exit25
  %46 = tail call i64 @fwrite(ptr nonnull @.str.22, i64 2, i64 1, ptr %0)
  %47 = tail call i64 @fwrite(ptr nonnull @.str.23, i64 8, i64 1, ptr %0)
  %.val18 = load ptr, ptr %3, align 8
  %48 = getelementptr inbounds nuw i8, ptr %.val18, i64 16
  %49 = load ptr, ptr %48, align 8
  %50 = getelementptr i8, ptr %49, i64 4
  %.val1011.i35 = load i32, ptr %50, align 4
  %51 = icmp sgt i32 %.val1011.i35, 0
  br i1 %51, label %.lr.ph.i36, label %Bac_PtrDumpSignalsVerilog.exit43

.lr.ph.i36:                                       ; preds = %Bac_PtrDumpSignalsVerilog.exit34
  %52 = getelementptr i8, ptr %49, i64 8
  br label %.lr.ph.split.us.i37

.lr.ph.split.us.i37:                              ; preds = %.lr.ph.split.us.i37, %.lr.ph.i36
  %indvars.iv16.i38 = phi i64 [ %indvars.iv.next17.i41, %.lr.ph.split.us.i37 ], [ 0, %.lr.ph.i36 ]
  %.val1013.us.i39 = phi i32 [ %.val10.us.i42, %.lr.ph.split.us.i37 ], [ %.val1011.i35, %.lr.ph.i36 ]
  %.val.us.i40 = load ptr, ptr %52, align 8
  %53 = getelementptr inbounds nuw ptr, ptr %.val.us.i40, i64 %indvars.iv16.i38
  %54 = load ptr, ptr %53, align 8
  %55 = add nsw i32 %.val1013.us.i39, -1
  %56 = sext i32 %55 to i64
  %57 = icmp slt i64 %indvars.iv16.i38, %56
  %58 = select i1 %57, ptr @.str.12, ptr @.str.13
  %59 = tail call i32 (ptr, ptr, ...) @fprintf(ptr noundef %0, ptr noundef nonnull @.str.11, ptr noundef %54, ptr noundef nonnull %58) #14
  %indvars.iv.next17.i41 = add nuw nsw i64 %indvars.iv16.i38, 1
  %.val10.us.i42 = load i32, ptr %50, align 4
  %60 = sext i32 %.val10.us.i42 to i64
  %61 = icmp slt i64 %indvars.iv.next17.i41, %60
  br i1 %61, label %.lr.ph.split.us.i37, label %Bac_PtrDumpSignalsVerilog.exit43, !llvm.loop !13

Bac_PtrDumpSignalsVerilog.exit43:                 ; preds = %.lr.ph.split.us.i37, %Bac_PtrDumpSignalsVerilog.exit34
  %62 = tail call i64 @fwrite(ptr nonnull @.str.22, i64 2, i64 1, ptr %0)
  %.val = load ptr, ptr %3, align 8
  %63 = getelementptr inbounds nuw i8, ptr %.val, i64 32
  %64 = load ptr, ptr %63, align 8
  %65 = getelementptr i8, ptr %64, i64 4
  %.val67.i = load i32, ptr %65, align 4
  %66 = icmp sgt i32 %.val67.i, 0
  br i1 %66, label %.lr.ph.i44, label %Bac_PtrDumpBoxesVerilog.exit

.lr.ph.i44:                                       ; preds = %Bac_PtrDumpSignalsVerilog.exit43
  %67 = getelementptr i8, ptr %64, i64 8
  br label %68

68:                                               ; preds = %68, %.lr.ph.i44
  %indvars.iv.i45 = phi i64 [ 0, %.lr.ph.i44 ], [ %indvars.iv.next.i47, %68 ]
  %.val.i46 = load ptr, ptr %67, align 8
  %69 = getelementptr inbounds nuw ptr, ptr %.val.i46, i64 %indvars.iv.i45
  %70 = load ptr, ptr %69, align 8
  tail call void @Bac_PtrDumpBoxVerilog(ptr noundef %0, ptr noundef %70)
  %indvars.iv.next.i47 = add nuw nsw i64 %indvars.iv.i45, 1
  %.val6.i = load i32, ptr %65, align 4
  %71 = sext i32 %.val6.i to i64
  %72 = icmp slt i64 %indvars.iv.next.i47, %71
  br i1 %72, label %68, label %Bac_PtrDumpBoxesVerilog.exit, !llvm.loop !15

Bac_PtrDumpBoxesVerilog.exit:                     ; preds = %68, %Bac_PtrDumpSignalsVerilog.exit43
  %73 = tail call i64 @fwrite(ptr nonnull @.str.24, i64 11, i64 1, ptr %0)
  ret void
}